Certificate:
    Data:
        Version: 3 (0x2)
        Serial Number:
            55:26:d7:41:6c:d3:db:cf:1e:d7:8a:ae:8b:0c:d9:1a:d9:fe:ed:2b
        Signature Algorithm: sha256WithRSAEncryption
        Issuer: CN=postgres1
        Validity
            Not Before: Apr 12 09:57:54 2024 GMT
            Not After : Apr 12 09:57:54 2025 GMT
        Subject: CN=postgres1
        Subject Public Key Info:
            Public Key Algorithm: rsaEncryption
                Public-Key: (2048 bit)
                Modulus:
                    00:d0:b0:8c:e4:65:30:be:6f:81:17:45:34:ad:1e:
                    56:db:ff:55:c6:ce:a6:4f:d7:62:98:5f:c5:c0:c4:
                    63:0d:95:95:70:de:81:75:fb:ab:26:c4:a4:95:d5:
                    a3:ef:ac:d5:f8:72:60:1b:2b:b8:09:57:c2:8f:32:
                    e3:90:d2:3c:8b:6f:90:71:4a:ae:16:55:aa:e0:ce:
                    b2:a7:04:6f:93:bd:9d:9e:f3:31:e2:6c:3b:7a:6e:
                    38:ce:9f:a4:04:31:5e:13:bf:2c:02:90:b4:ba:91:
                    81:6b:b2:5a:38:67:ea:74:b1:ce:33:1d:11:4e:22:
                    74:2c:e0:2d:47:8a:79:67:b1:2e:4c:44:04:8d:48:
                    02:b5:3f:2b:c8:85:cf:e6:e5:50:56:dc:3c:49:4d:
                    9b:97:24:e6:f2:b2:7a:a7:0e:97:08:24:69:33:6c:
                    c8:36:1d:49:26:cb:96:81:9f:1a:30:9b:f7:31:c8:
                    2a:71:3a:6d:6b:d3:ff:01:cc:b8:6b:60:37:fa:6a:
                    36:51:fc:3f:94:b6:f2:49:1d:21:1e:34:3c:5f:d8:
                    65:47:e3:ec:24:f7:04:9a:21:93:d5:5d:b8:ea:a6:
                    c5:7e:c1:43:92:97:f8:94:85:f2:2e:98:c5:0e:9a:
                    35:62:46:01:00:39:e1:60:e3:f3:77:db:a1:48:ba:
                    8a:57
                Exponent: 65537 (0x10001)
        X509v3 extensions:
            X509v3 Subject Key Identifier: 
                65:F2:1F:80:D8:C7:25:FF:A0:92:51:21:23:D8:B0:AF:0F:0C:1B:2D
            X509v3 Authority Key Identifier: 
                6F:E9:3A:C5:BD:81:C5:D3:95:3C:3C:97:E2:88:72:C2:AC:BC:C9:1B
    Signature Algorithm: sha256WithRSAEncryption
    Signature Value:
        58:20:51:c5:e9:b7:6e:32:cc:be:2a:77:2a:97:91:12:a4:18:
        aa:f7:19:3f:cc:21:31:11:84:ce:a9:4c:6b:0c:9a:d9:0e:c0:
        ca:60:6b:ed:e4:bf:1a:22:87:cd:6c:a3:a9:3e:ab:5c:e5:45:
        b1:ea:c0:c0:27:7e:26:e4:b8:f3:a6:a6:c8:05:24:d2:27:c2:
        56:bd:37:58:b8:0d:8a:32:ad:b2:38:df:e4:fd:54:f8:86:c0:
        ee:ab:84:5a:9a:0f:9b:f6:6e:0b:9a:c2:fb:f0:f4:59:2c:7b:
        f3:75:36:79:61:c0:de:ed:fc:b7:b1:4d:25:72:b3:4a:8e:31:
        20:00:d2:46:7b:74:fb:c2:26:eb:19:3d:8f:c2:46:55:6d:dc:
        f2:20:94:93:ff:69:1f:70:87:0f:0b:07:2f:f9:af:29:3e:86:
        cd:0a:6e:ac:2e:e0:f2:d3:f8:f2:b2:a9:6a:d6:b3:8f:b6:d2:
        88:24:09:84:02:47:dd:6d:c1:0e:80:f6:94:de:fe:78:60:13:
        96:b6:56:2e:ae:ae:22:f6:5c:73:21:32:09:04:71:ec:f9:0e:
        1f:02:f6:a2:0f:b5:49:52:01:12:3d:37:ef:6c:96:cb:9c:c8:
        3c:28:c5:39:a6:cd:39:8f:cf:b2:f0:d0:3c:bc:27:d5:1b:27:
        41:7d:ad:4b
-----BEGIN CERTIFICATE-----
MIIC+DCCAeCgAwIBAgIUVSbXQWzT288e14quiwzZGtn+7SswDQYJKoZIhvcNAQEL
BQAwFDESMBAGA1UEAwwJcG9zdGdyZXMxMB4XDTI0MDQxMjA5NTc1NFoXDTI1MDQx
MjA5NTc1NFowFDESMBAGA1UEAwwJcG9zdGdyZXMxMIIBIjANBgkqhkiG9w0BAQEF
AAOCAQ8AMIIBCgKCAQEA0LCM5GUwvm+BF0U0rR5W2/9Vxs6mT9dimF/FwMRjDZWV
cN6BdfurJsSkldWj76zV+HJgGyu4CVfCjzLjkNI8i2+QcUquFlWq4M6ypwRvk72d
nvMx4mw7em44zp+kBDFeE78sApC0upGBa7JaOGfqdLHOMx0RTiJ0LOAtR4p5Z7Eu
TEQEjUgCtT8ryIXP5uVQVtw8SU2blyTm8rJ6pw6XCCRpM2zINh1JJsuWgZ8aMJv3
McgqcTpta9P/Acy4a2A3+mo2Ufw/lLbySR0hHjQ8X9hlR+PsJPcEmiGT1V246qbF
fsFDkpf4lIXyLpjFDpo1YkYBADnhYOPzd9uhSLqKVwIDAQABo0IwQDAdBgNVHQ4E
FgQUZfIfgNjHJf+gklEhI9iwrw8MGy0wHwYDVR0jBBgwFoAUb+k6xb2BxdOVPDyX
4ohywqy8yRswDQYJKoZIhvcNAQELBQADggEBAFggUcXpt24yzL4qdyqXkRKkGKr3
GT/MITERhM6pTGsMmtkOwMpga+3kvxoih81so6k+q1zlRbHqwMAnfibkuPOmpsgF
JNInwla9N1i4DYoyrbI43+T9VPiGwO6rhFqaD5v2bguawvvw9Fkse/N1NnlhwN7t
/LexTSVys0qOMSAA0kZ7dPvCJusZPY/CRlVt3PIglJP/aR9whw8LBy/5ryk+hs0K
bqwu4PLT+PKyqWrWs4+20ogkCYQCR91twQ6A9pTe/nhgE5a2Vi6uriL2XHMhMgkE
cez5Dh8C9qIPtUlSARI9N+9slsucyDwoxTmmzTmPz7Lw0Dy8J9UbJ0F9rUs=
-----END CERTIFICATE-----
